target datalayout = "e-m:e-p270:32:32-p271:32:32-p272:64:64-i64:64-i128:128-f80:128-n8:16:32:64-S128"
target triple = "x86_64-pc-linux-gnu"

%struct.DataHeader = type { %struct.MappedData, %struct.UDataInfo }
%struct.MappedData = type { i16, i8, i8 }
%struct.UDataInfo = type { i16, i16, i8, i8, i8, i8, [4 x i8], [4 x i8], [4 x i8] }

; Function Attrs: mustprogress nounwind uwtable
define internal noundef zeroext i16 @_ZL19uprv_readSwapUInt16t(i16 noundef zeroext %0) #7 {
  %2 = alloca i16, align 2
  store i16 %0, ptr %2, align 2, !tbaa !8
  %3 = load i16, ptr %2, align 2, !tbaa !8
  %4 = zext i16 %3 to i32
  %5 = shl i32 %4, 8
  %6 = load i16, ptr %2, align 2, !tbaa !8
  %7 = zext i16 %6 to i32
  %8 = ashr i32 %7, 8
  %9 = or i32 %5, %8
  %10 = trunc i32 %9 to i16
  ret i16 %10
}

; Function Attrs: inlinehint mustprogress nounwind uwtable
define internal noundef signext i8 @_ZL9U_FAILURE10UErrorCode(i32 noundef %0) #2 {
  %2 = alloca i32, align 4
  store i32 %0, ptr %2, align 4, !tbaa !16
  %3 = load i32, ptr %2, align 4, !tbaa !16
  %4 = icmp sgt i32 %3, 0
  %5 = zext i1 %4 to i8
  ret i8 %5
}

; Function Attrs: mustprogress uwtable
define ptr @udata_openSwapperForInputData_77(ptr noundef %0, i32 noundef %1, i8 noundef signext %2, i8 noundef zeroext %3, ptr noundef %4) #0 {
  %6 = alloca ptr, align 8
  %7 = alloca ptr, align 8
  %8 = alloca i32, align 4
  %9 = alloca i8, align 1
  %10 = alloca i8, align 1
  %11 = alloca ptr, align 8
  %12 = alloca ptr, align 8
  %13 = alloca i16, align 2
  %14 = alloca i16, align 2
  %15 = alloca i8, align 1
  %16 = alloca i8, align 1
  %17 = alloca i32, align 4
  store ptr %0, ptr %7, align 8, !tbaa !15
  store i32 %1, ptr %8, align 4, !tbaa !12
  store i8 %2, ptr %9, align 1, !tbaa !20
  store i8 %3, ptr %10, align 1, !tbaa !20
  store ptr %4, ptr %11, align 8, !tbaa !15
  call void @llvm.lifetime.start.p0(i64 8, ptr %12) #9
  call void @llvm.lifetime.start.p0(i64 2, ptr %13) #9
  call void @llvm.lifetime.start.p0(i64 2, ptr %14) #9
  call void @llvm.lifetime.start.p0(i64 1, ptr %15) #9
  call void @llvm.lifetime.start.p0(i64 1, ptr %16) #9
  %18 = load ptr, ptr %11, align 8, !tbaa !15
  %19 = icmp eq ptr %18, null
  br i1 %19, label %25, label %20

20:                                               ; preds = %5
  %21 = load ptr, ptr %11, align 8, !tbaa !15
  %22 = load i32, ptr %21, align 4, !tbaa !16
  %23 = call noundef signext i8 @_ZL9U_FAILURE10UErrorCode(i32 noundef %22)
  %24 = icmp ne i8 %23, 0
  br i1 %24, label %25, label %26

25:                                               ; preds = %20, %5
  store ptr null, ptr %6, align 8
  store i32 1, ptr %17, align 4
  br label %135

26:                                               ; preds = %20
  %27 = load ptr, ptr %7, align 8, !tbaa !15
  %28 = icmp eq ptr %27, null
  br i1 %28, label %39, label %29

29:                                               ; preds = %26
  %30 = load i32, ptr %8, align 4, !tbaa !12
  %31 = icmp sge i32 %30, 0
  br i1 %31, label %32, label %35

32:                                               ; preds = %29
  %33 = load i32, ptr %8, align 4, !tbaa !12
  %34 = icmp slt i32 %33, 24
  br i1 %34, label %39, label %35

35:                                               ; preds = %32, %29
  %36 = load i8, ptr %10, align 1, !tbaa !20
  %37 = zext i8 %36 to i32
  %38 = icmp sgt i32 %37, 1
  br i1 %38, label %39, label %41

39:                                               ; preds = %35, %32, %26
  %40 = load ptr, ptr %11, align 8, !tbaa !15
  store i32 1, ptr %40, align 4, !tbaa !16
  store ptr null, ptr %6, align 8
  store i32 1, ptr %17, align 4
  br label %135

41:                                               ; preds = %35
  %42 = load ptr, ptr %7, align 8, !tbaa !15
  store ptr %42, ptr %12, align 8, !tbaa !15
  %43 = load i32, ptr %8, align 4, !tbaa !12
  %44 = icmp sge i32 %43, 0
  br i1 %44, label %45, label %48

45:                                               ; preds = %41
  %46 = load i32, ptr %8, align 4, !tbaa !12
  %47 = icmp slt i32 %46, 24
  br i1 %47, label %69, label %48

48:                                               ; preds = %45, %41
  %49 = load ptr, ptr %12, align 8, !tbaa !15
  %50 = getelementptr inbounds nuw %struct.DataHeader, ptr %49, i32 0, i32 0
  %51 = getelementptr inbounds nuw %struct.MappedData, ptr %50, i32 0, i32 1
  %52 = load i8, ptr %51, align 2, !tbaa !26
  %53 = zext i8 %52 to i32
  %54 = icmp ne i32 %53, 218
  br i1 %54, label %69, label %55

55:                                               ; preds = %48
  %56 = load ptr, ptr %12, align 8, !tbaa !15
  %57 = getelementptr inbounds nuw %struct.DataHeader, ptr %56, i32 0, i32 0
  %58 = getelementptr inbounds nuw %struct.MappedData, ptr %57, i32 0, i32 2
  %59 = load i8, ptr %58, align 1, !tbaa !30
  %60 = zext i8 %59 to i32
  %61 = icmp ne i32 %60, 39
  br i1 %61, label %69, label %62

62:                                               ; preds = %55
  %63 = load ptr, ptr %12, align 8, !tbaa !15
  %64 = getelementptr inbounds nuw %struct.DataHeader, ptr %63, i32 0, i32 1
  %65 = getelementptr inbounds nuw %struct.UDataInfo, ptr %64, i32 0, i32 4
  %66 = load i8, ptr %65, align 2, !tbaa !31
  %67 = zext i8 %66 to i32
  %68 = icmp ne i32 %67, 2
  br i1 %68, label %69, label %71

69:                                               ; preds = %62, %55, %48, %45
  %70 = load ptr, ptr %11, align 8, !tbaa !15
  store i32 16, ptr %70, align 4, !tbaa !16
  store ptr null, ptr %6, align 8
  store i32 1, ptr %17, align 4
  br label %135

71:                                               ; preds = %62
  %72 = load ptr, ptr %12, align 8, !tbaa !15
  %73 = getelementptr inbounds nuw %struct.DataHeader, ptr %72, i32 0, i32 1
  %74 = getelementptr inbounds nuw %struct.UDataInfo, ptr %73, i32 0, i32 2
  %75 = load i8, ptr %74, align 2, !tbaa !35
  store i8 %75, ptr %15, align 1, !tbaa !20
  %76 = load ptr, ptr %12, align 8, !tbaa !15
  %77 = getelementptr inbounds nuw %struct.DataHeader, ptr %76, i32 0, i32 1
  %78 = getelementptr inbounds nuw %struct.UDataInfo, ptr %77, i32 0, i32 3
  %79 = load i8, ptr %78, align 1, !tbaa !37
  store i8 %79, ptr %16, align 1, !tbaa !20
  %80 = load i8, ptr %15, align 1, !tbaa !20
  %81 = sext i8 %80 to i32
  %82 = icmp eq i32 %81, 0
  br i1 %82, label %83, label %92

83:                                               ; preds = %71
  %84 = load ptr, ptr %12, align 8, !tbaa !15
  %85 = getelementptr inbounds nuw %struct.DataHeader, ptr %84, i32 0, i32 0
  %86 = getelementptr inbounds nuw %struct.MappedData, ptr %85, i32 0, i32 0
  %87 = load i16, ptr %86, align 2, !tbaa !32
  store i16 %87, ptr %13, align 2, !tbaa !8
  %88 = load ptr, ptr %12, align 8, !tbaa !15
  %89 = getelementptr inbounds nuw %struct.DataHeader, ptr %88, i32 0, i32 1
  %90 = getelementptr inbounds nuw %struct.UDataInfo, ptr %89, i32 0, i32 0
  %91 = load i16, ptr %90, align 2, !tbaa !33
  store i16 %91, ptr %14, align 2, !tbaa !8
  br label %103

92:                                               ; preds = %71
  %93 = load ptr, ptr %12, align 8, !tbaa !15
  %94 = getelementptr inbounds nuw %struct.DataHeader, ptr %93, i32 0, i32 0
  %95 = getelementptr inbounds nuw %struct.MappedData, ptr %94, i32 0, i32 0
  %96 = load i16, ptr %95, align 2, !tbaa !32
  %97 = call noundef zeroext i16 @_ZL19uprv_readSwapUInt16t(i16 noundef zeroext %96)
  store i16 %97, ptr %13, align 2, !tbaa !8
  %98 = load ptr, ptr %12, align 8, !tbaa !15
  %99 = getelementptr inbounds nuw %struct.DataHeader, ptr %98, i32 0, i32 1
  %100 = getelementptr inbounds nuw %struct.UDataInfo, ptr %99, i32 0, i32 0
  %101 = load i16, ptr %100, align 2, !tbaa !33
  %102 = call noundef zeroext i16 @_ZL19uprv_readSwapUInt16t(i16 noundef zeroext %101)
  store i16 %102, ptr %14, align 2, !tbaa !8
  br label %103

103:                                              ; preds = %92, %83
  %104 = load i16, ptr %13, align 2, !tbaa !8
  %105 = zext i16 %104 to i64
  %106 = icmp ult i64 %105, 24
  br i1 %106, label %126, label %107

107:                                              ; preds = %103
  %108 = load i16, ptr %14, align 2, !tbaa !8
  %109 = zext i16 %108 to i64
  %110 = icmp ult i64 %109, 20
  br i1 %110, label %126, label %111

111:                                              ; preds = %107
  %112 = load i16, ptr %13, align 2, !tbaa !8
  %113 = zext i16 %112 to i64
  %114 = load i16, ptr %14, align 2, !tbaa !8
  %115 = zext i16 %114 to i64
  %116 = add i64 4, %115
  %117 = icmp ult i64 %113, %116
  br i1 %117, label %126, label %118

118:                                              ; preds = %111
  %119 = load i32, ptr %8, align 4, !tbaa !12
  %120 = icmp sge i32 %119, 0
  br i1 %120, label %121, label %128

121:                                              ; preds = %118
  %122 = load i32, ptr %8, align 4, !tbaa !12
  %123 = load i16, ptr %13, align 2, !tbaa !8
  %124 = zext i16 %123 to i32
  %125 = icmp slt i32 %122, %124
  br i1 %125, label %126, label %128

126:                                              ; preds = %121, %111, %107, %103
  %127 = load ptr, ptr %11, align 8, !tbaa !15
  store i32 16, ptr %127, align 4, !tbaa !16
  store ptr null, ptr %6, align 8
  store i32 1, ptr %17, align 4
  br label %135

128:                                              ; preds = %121, %118
  %129 = load i8, ptr %15, align 1, !tbaa !20
  %130 = load i8, ptr %16, align 1, !tbaa !20
  %131 = load i8, ptr %9, align 1, !tbaa !20
  %132 = load i8, ptr %10, align 1, !tbaa !20
  %133 = load ptr, ptr %11, align 8, !tbaa !15
  %134 = call ptr @udata_openSwapper_77(i8 noundef signext %129, i8 noundef zeroext %130, i8 noundef signext %131, i8 noundef zeroext %132, ptr noundef %133)
  store ptr %134, ptr %6, align 8
  store i32 1, ptr %17, align 4
  br label %135

135:                                              ; preds = %128, %126, %69, %39, %25
  call void @llvm.lifetime.end.p0(i64 1, ptr %16) #9
  call void @llvm.lifetime.end.p0(i64 1, ptr %15) #9
  call void @llvm.lifetime.end.p0(i64 2, ptr %14) #9
  call void @llvm.lifetime.end.p0(i64 2, ptr %13) #9
  call void @llvm.lifetime.end.p0(i64 8, ptr %12) #9
  %136 = load ptr, ptr %6, align 8
  ret ptr %136
}