; Function Attrs: mustprogress uwtable
define noalias noundef ptr @udata_openSwapperForInputData_77(ptr noundef readonly %0, i32 noundef %1, i8 noundef signext %2, i8 noundef zeroext %3, ptr noundef %4) local_unnamed_addr #0 {
  %6 = icmp eq ptr %4, null
  br i1 %6, label %51, label %7

7:                                                ; preds = %5
  %8 = load i32, ptr %4, align 4, !tbaa !9
  %9 = icmp slt i32 %8, 1
  br i1 %9, label %10, label %51

10:                                               ; preds = %7
  %11 = icmp eq ptr %0, null
  br i1 %11, label %14, label %12

12:                                               ; preds = %10
  %or.cond = icmp ult i32 %1, 24
  %13 = icmp ugt i8 %3, 1
  %or.cond4 = or i1 %or.cond, %13
  br i1 %or.cond4, label %14, label %15

14:                                               ; preds = %12, %10
  store i32 1, ptr %4, align 4, !tbaa !9
  br label %51

15:                                               ; preds = %12
  %16 = getelementptr inbounds nuw i8, ptr %0, i64 2
  %17 = load i8, ptr %16, align 2, !tbaa !17
  %.not50 = icmp eq i8 %17, -38
  br i1 %.not50, label %18, label %25

18:                                               ; preds = %15
  %19 = getelementptr inbounds nuw i8, ptr %0, i64 3
  %20 = load i8, ptr %19, align 1, !tbaa !22
  %.not51 = icmp eq i8 %20, 39
  br i1 %.not51, label %21, label %25

21:                                               ; preds = %18
  %22 = getelementptr inbounds nuw i8, ptr %0, i64 4
  %23 = getelementptr inbounds nuw i8, ptr %0, i64 10
  %24 = load i8, ptr %23, align 2, !tbaa !23
  %.not52 = icmp eq i8 %24, 2
  br i1 %.not52, label %26, label %25

25:                                               ; preds = %21, %18, %15
  store i32 16, ptr %4, align 4, !tbaa !9
  br label %51

26:                                               ; preds = %21
  %27 = getelementptr inbounds nuw i8, ptr %0, i64 8
  %28 = load i8, ptr %27, align 2, !tbaa !27
  %29 = getelementptr inbounds nuw i8, ptr %0, i64 9
  %30 = load i8, ptr %29, align 1, !tbaa !29
  %31 = icmp eq i8 %28, 0
  %32 = load i16, ptr %0, align 2, !tbaa !24
  br i1 %31, label %33, label %35

33:                                               ; preds = %26
  %34 = load i16, ptr %22, align 2, !tbaa !25
  br label %39

35:                                               ; preds = %26
  %36 = tail call noundef i16 @llvm.bswap.i16(i16 %32)
  %37 = load i16, ptr %22, align 2, !tbaa !25
  %38 = tail call noundef i16 @llvm.bswap.i16(i16 %37)
  br label %39

39:                                               ; preds = %35, %33
  %.044 = phi i16 [ %34, %33 ], [ %38, %35 ]
  %.043 = phi i16 [ %32, %33 ], [ %36, %35 ]
  %40 = icmp ult i16 %.043, 24
  %41 = icmp ult i16 %.044, 20
  %or.cond9 = select i1 %40, i1 true, i1 %41
  br i1 %or.cond9, label %48, label %42

42:                                               ; preds = %39
  %43 = zext i16 %.044 to i64
  %44 = zext i16 %.043 to i64
  %45 = add nuw nsw i64 %43, 4
  %46 = icmp samesign ugt i64 %45, %44
  %47 = zext i16 %.043 to i32
  %or.cond54 = icmp ult i32 %1, %47
  %or.cond55 = or i1 %46, %or.cond54
  br i1 %or.cond55, label %48, label %49

48:                                               ; preds = %42, %39
  store i32 16, ptr %4, align 4, !tbaa !9
  br label %51

49:                                               ; preds = %42
  %50 = tail call ptr @udata_openSwapper_77(i8 noundef signext %28, i8 noundef zeroext %30, i8 noundef signext %2, i8 noundef zeroext %3, ptr noundef nonnull %4)
  br label %51

51:                                               ; preds = %5, %7, %49, %48, %25, %14
  %.0 = phi ptr [ null, %14 ], [ null, %25 ], [ null, %48 ], [ %50, %49 ], [ null, %7 ], [ null, %5 ]
  ret ptr %.0
}